target datalayout = "e-m:e-p270:32:32-p271:32:32-p272:64:64-i64:64-i128:128-f80:128-n8:16:32:64-S128"
target triple = "x86_64-pc-linux-gnu"

%struct.Vec_Int_t_ = type { i32, i32, ptr }
%struct.Nf_Man_t_ = type { ptr, ptr, ptr, ptr, ptr, ptr, i32, ptr, %struct.Vec_Ptr_t_, %struct.Vec_Int_t_, %struct.Vec_Int_t_, %struct.Vec_Flt_t_, %struct.Vec_Int_t_, %struct.Vec_Flt_t_, %struct.Vec_Int_t_, %struct.Vec_Int_t_, i32, i32, i32, i32, i32, i64, float, i64, [6 x double], i32 }
%struct.Vec_Ptr_t_ = type { i32, i32, ptr }
%struct.Vec_Flt_t_ = type { i32, i32, ptr }

; Function Attrs: inlinehint nounwind uwtable
define internal ptr @Vec_IntEntryP(ptr noundef %0, i32 noundef %1) #2 {
  %3 = alloca ptr, align 8
  %4 = alloca i32, align 4
  store ptr %0, ptr %3, align 8, !tbaa !26
  store i32 %1, ptr %4, align 4, !tbaa !17
  %5 = load ptr, ptr %3, align 8, !tbaa !26
  %6 = getelementptr inbounds nuw %struct.Vec_Int_t_, ptr %5, i32 0, i32 2
  %7 = load ptr, ptr %6, align 8, !tbaa !46
  %8 = load i32, ptr %4, align 4, !tbaa !17
  %9 = sext i32 %8 to i64
  %10 = getelementptr inbounds i32, ptr %7, i64 %9
  ret ptr %10
}

; Function Attrs: inlinehint nounwind uwtable
define internal i32 @Abc_Var2Lit(i32 noundef %0, i32 noundef %1) #2 {
  %3 = alloca i32, align 4
  %4 = alloca i32, align 4
  store i32 %0, ptr %3, align 4, !tbaa !17
  store i32 %1, ptr %4, align 4, !tbaa !17
  %5 = load i32, ptr %3, align 4, !tbaa !17
  %6 = load i32, ptr %3, align 4, !tbaa !17
  %7 = add nsw i32 %5, %6
  %8 = load i32, ptr %4, align 4, !tbaa !17
  %9 = add nsw i32 %7, %8
  ret i32 %9
}

; Function Attrs: inlinehint nounwind uwtable
define internal i32 @Nf_ObjMapRefDec(ptr noundef %0, i32 noundef %1, i32 noundef %2) #2 {
  %4 = alloca ptr, align 8
  %5 = alloca i32, align 4
  %6 = alloca i32, align 4
  store ptr %0, ptr %4, align 8, !tbaa !61
  store i32 %1, ptr %5, align 4, !tbaa !17
  store i32 %2, ptr %6, align 4, !tbaa !17
  %7 = load ptr, ptr %4, align 8, !tbaa !61
  %8 = getelementptr inbounds nuw %struct.Nf_Man_t_, ptr %7, i32 0, i32 10
  %9 = load i32, ptr %5, align 4, !tbaa !17
  %10 = load i32, ptr %6, align 4, !tbaa !17
  %11 = call i32 @Abc_Var2Lit(i32 noundef %9, i32 noundef %10)
  %12 = call ptr @Vec_IntEntryP(ptr noundef %8, i32 noundef %11)
  %13 = load i32, ptr %12, align 4, !tbaa !17
  %14 = add nsw i32 %13, -1
  store i32 %14, ptr %12, align 4, !tbaa !17
  ret i32 %14
}

; Function Attrs: inlinehint nounwind uwtable
define internal i32 @Abc_LitIsCompl(i32 noundef %0) #2 {
  %2 = alloca i32, align 4
  store i32 %0, ptr %2, align 4, !tbaa !17
  %3 = load i32, ptr %2, align 4, !tbaa !17
  %4 = and i32 %3, 1
  ret i32 %4
}

; Function Attrs: inlinehint nounwind uwtable
define internal i32 @Abc_Lit2Var(i32 noundef %0) #2 {
  %2 = alloca i32, align 4
  store i32 %0, ptr %2, align 4, !tbaa !17
  %3 = load i32, ptr %2, align 4, !tbaa !17
  %4 = ashr i32 %3, 1
  ret i32 %4
}

; Function Attrs: inlinehint nounwind uwtable
define internal i32 @Vec_IntEntry(ptr noundef %0, i32 noundef %1) #2 {
  %3 = alloca ptr, align 8
  %4 = alloca i32, align 4
  store ptr %0, ptr %3, align 8, !tbaa !26
  store i32 %1, ptr %4, align 4, !tbaa !17
  %5 = load ptr, ptr %3, align 8, !tbaa !26
  %6 = getelementptr inbounds nuw %struct.Vec_Int_t_, ptr %5, i32 0, i32 2
  %7 = load ptr, ptr %6, align 8, !tbaa !46
  %8 = load i32, ptr %4, align 4, !tbaa !17
  %9 = sext i32 %8 to i64
  %10 = getelementptr inbounds i32, ptr %7, i64 %9
  %11 = load i32, ptr %10, align 4, !tbaa !17
  ret i32 %11
}

; Function Attrs: inlinehint nounwind uwtable
define internal i32 @Vec_IntSize(ptr noundef %0) #2 {
  %2 = alloca ptr, align 8
  store ptr %0, ptr %2, align 8, !tbaa !26
  %3 = load ptr, ptr %2, align 8, !tbaa !26
  %4 = getelementptr inbounds nuw %struct.Vec_Int_t_, ptr %3, i32 0, i32 1
  %5 = load i32, ptr %4, align 4, !tbaa !44
  ret i32 %5
}

; Function Attrs: inlinehint nounwind uwtable
define internal void @Vec_IntClear(ptr noundef %0) #2 {
  %2 = alloca ptr, align 8
  store ptr %0, ptr %2, align 8, !tbaa !26
  %3 = load ptr, ptr %2, align 8, !tbaa !26
  %4 = getelementptr inbounds nuw %struct.Vec_Int_t_, ptr %3, i32 0, i32 1
  store i32 0, ptr %4, align 4, !tbaa !44
  ret void
}

; Function Attrs: nounwind uwtable
define i64 @Nf_MatchRefArea(ptr noundef %0, i32 noundef %1, i32 noundef %2, ptr noundef %3, i32 noundef %4) #0 {
  %6 = alloca ptr, align 8
  %7 = alloca i32, align 4
  %8 = alloca i32, align 4
  %9 = alloca ptr, align 8
  %10 = alloca i32, align 4
  %11 = alloca i64, align 8
  %12 = alloca i32, align 4
  %13 = alloca i32, align 4
  store ptr %0, ptr %6, align 8, !tbaa !61
  store i32 %1, ptr %7, align 4, !tbaa !17
  store i32 %2, ptr %8, align 4, !tbaa !17
  store ptr %3, ptr %9, align 8, !tbaa !193
  store i32 %4, ptr %10, align 4, !tbaa !17
  call void @llvm.lifetime.start.p0(i64 8, ptr %11) #13
  call void @llvm.lifetime.start.p0(i64 4, ptr %12) #13
  call void @llvm.lifetime.start.p0(i64 4, ptr %13) #13
  %14 = load ptr, ptr %6, align 8, !tbaa !61
  %15 = getelementptr inbounds nuw %struct.Nf_Man_t_, ptr %14, i32 0, i32 15
  call void @Vec_IntClear(ptr noundef %15)
  %16 = load ptr, ptr %6, align 8, !tbaa !61
  %17 = load i32, ptr %7, align 4, !tbaa !17
  %18 = load i32, ptr %8, align 4, !tbaa !17
  %19 = load ptr, ptr %9, align 8, !tbaa !193
  %20 = load i32, ptr %10, align 4, !tbaa !17
  %21 = load ptr, ptr %6, align 8, !tbaa !61
  %22 = getelementptr inbounds nuw %struct.Nf_Man_t_, ptr %21, i32 0, i32 15
  %23 = call i64 @Nf_MatchRef_rec(ptr noundef %16, i32 noundef %17, i32 noundef %18, ptr noundef %19, i32 noundef %20, ptr noundef %22)
  store i64 %23, ptr %11, align 8, !tbaa !25
  store i32 0, ptr %13, align 4, !tbaa !17
  br label %24

24:                                               ; preds = %44, %5
  %25 = load i32, ptr %13, align 4, !tbaa !17
  %26 = load ptr, ptr %6, align 8, !tbaa !61
  %27 = getelementptr inbounds nuw %struct.Nf_Man_t_, ptr %26, i32 0, i32 15
  %28 = call i32 @Vec_IntSize(ptr noundef %27)
  %29 = icmp slt i32 %25, %28
  br i1 %29, label %30, label %35

30:                                               ; preds = %24
  %31 = load ptr, ptr %6, align 8, !tbaa !61
  %32 = getelementptr inbounds nuw %struct.Nf_Man_t_, ptr %31, i32 0, i32 15
  %33 = load i32, ptr %13, align 4, !tbaa !17
  %34 = call i32 @Vec_IntEntry(ptr noundef %32, i32 noundef %33)
  store i32 %34, ptr %12, align 4, !tbaa !17
  br label %35

35:                                               ; preds = %30, %24
  %36 = phi i1 [ false, %24 ], [ true, %30 ]
  br i1 %36, label %37, label %47

37:                                               ; preds = %35
  %38 = load ptr, ptr %6, align 8, !tbaa !61
  %39 = load i32, ptr %12, align 4, !tbaa !17
  %40 = call i32 @Abc_Lit2Var(i32 noundef %39)
  %41 = load i32, ptr %12, align 4, !tbaa !17
  %42 = call i32 @Abc_LitIsCompl(i32 noundef %41)
  %43 = call i32 @Nf_ObjMapRefDec(ptr noundef %38, i32 noundef %40, i32 noundef %42)
  br label %44

44:                                               ; preds = %37
  %45 = load i32, ptr %13, align 4, !tbaa !17
  %46 = add nsw i32 %45, 1
  store i32 %46, ptr %13, align 4, !tbaa !17
  br label %24, !llvm.loop !235

47:                                               ; preds = %35
  %48 = load i64, ptr %11, align 8, !tbaa !25
  call void @llvm.lifetime.end.p0(i64 4, ptr %13) #13
  call void @llvm.lifetime.end.p0(i64 4, ptr %12) #13
  call void @llvm.lifetime.end.p0(i64 8, ptr %11) #13
  ret i64 %48
}