; Function Attrs: nounwind uwtable
define i64 @Nf_MatchRefArea(ptr noundef initializes((180, 184)) %0, i32 noundef %1, i32 noundef %2, ptr noundef readonly captures(none) %3, i32 noundef %4) local_unnamed_addr #2 {
  %6 = getelementptr inbounds nuw i8, ptr %0, i64 176
  %7 = getelementptr inbounds nuw i8, ptr %0, i64 180
  store i32 0, ptr %7, align 4, !tbaa !22
  %8 = tail call i64 @Nf_MatchRef_rec(ptr noundef %0, i32 noundef %1, i32 noundef %2, ptr noundef %3, i32 noundef %4, ptr noundef nonnull %6)
  %.val17 = load i32, ptr %7, align 4, !tbaa !22
  %9 = icmp sgt i32 %.val17, 0
  br i1 %9, label %.lr.ph, label %.critedge

.lr.ph:                                           ; preds = %5
  %10 = getelementptr i8, ptr %0, i64 184
  %.val15 = load ptr, ptr %10, align 8, !tbaa !25
  %11 = getelementptr i8, ptr %0, i64 104
  %.val16 = load ptr, ptr %11, align 8, !tbaa !25
  br label %12

12:                                               ; preds = %.lr.ph, %12
  %indvars.iv = phi i64 [ 0, %.lr.ph ], [ %indvars.iv.next, %12 ]
  %13 = getelementptr inbounds nuw i32, ptr %.val15, i64 %indvars.iv
  %14 = load i32, ptr %13, align 4, !tbaa !13
  %15 = sext i32 %14 to i64
  %16 = getelementptr inbounds i32, ptr %.val16, i64 %15
  %17 = load i32, ptr %16, align 4, !tbaa !13
  %18 = add nsw i32 %17, -1
  store i32 %18, ptr %16, align 4, !tbaa !13
  %indvars.iv.next = add nuw nsw i64 %indvars.iv, 1
  %.val = load i32, ptr %7, align 4, !tbaa !22
  %19 = sext i32 %.val to i64
  %20 = icmp slt i64 %indvars.iv.next, %19
  br i1 %20, label %12, label %.critedge, !llvm.loop !236

.critedge:                                        ; preds = %12, %5
  ret i64 %8
}